; Function Attrs: nounwind uwtable
define void @validateNormProbs(double noundef %0, double noundef %1, ptr noundef %2) local_unnamed_addr #3 {
  %4 = fcmp ult double %0, 0.000000e+00
  %5 = fcmp ugt double %0, 1.000000e+00
  %.not4.i = or i1 %4, %5
  br i1 %.not4.i, label %6, label %validateProb.exit

6:                                                ; preds = %3
  tail call void @invalidQuESTInputError(ptr noundef nonnull @.str.38, ptr noundef %2)
  br label %validateProb.exit

validateProb.exit:                                ; preds = %3, %6
  %7 = fcmp ult double %1, 0.000000e+00
  %8 = fcmp ugt double %1, 1.000000e+00
  %.not4.i8 = or i1 %7, %8
  br i1 %.not4.i8, label %9, label %validateProb.exit9

9:                                                ; preds = %validateProb.exit
  tail call void @invalidQuESTInputError(ptr noundef nonnull @.str.38, ptr noundef %2)
  br label %validateProb.exit9

validateProb.exit9:                               ; preds = %validateProb.exit, %9
  %10 = fadd double %0, %1
  %11 = fsub double 1.000000e+00, %10
  %12 = tail call double @llvm.fabs.f64(double %11)
  %13 = fcmp uge double %12, 1.000000e-13
  br i1 %13, label %14, label %QuESTAssert.exit

14:                                               ; preds = %validateProb.exit9
  tail call void @invalidQuESTInputError(ptr noundef nonnull @.str.39, ptr noundef %2)
  br label %QuESTAssert.exit

QuESTAssert.exit:                                 ; preds = %validateProb.exit9, %14
  ret void
}